; Function Attrs: inlinehint mustprogress nounwind willreturn uwtable
define internal fastcc signext i8 @Min_LitIsImplied1(ptr noundef captures(none) %0, i32 noundef %1) unnamed_addr #3 {
  %3 = getelementptr i8, ptr %0, i64 24
  %.val24 = load ptr, ptr %3, align 8, !tbaa !32
  %4 = sext i32 %1 to i64
  %5 = getelementptr inbounds i32, ptr %.val24, i64 %4
  %6 = load i32, ptr %5, align 4, !tbaa !35
  %7 = xor i32 %1, 1
  %8 = sext i32 %7 to i64
  %9 = getelementptr inbounds i32, ptr %.val24, i64 %8
  %10 = load i32, ptr %9, align 4, !tbaa !35
  %11 = getelementptr i8, ptr %0, i64 56
  %.val22 = load ptr, ptr %11, align 8, !tbaa !49
  %12 = sext i32 %6 to i64
  %13 = getelementptr inbounds i8, ptr %.val22, i64 %12
  %14 = load i8, ptr %13, align 1, !tbaa !50
  %15 = sext i32 %10 to i64
  %16 = getelementptr inbounds i8, ptr %.val22, i64 %15
  %17 = load i8, ptr %16, align 1, !tbaa !50
  %18 = trunc i32 %1 to i1
  %19 = icmp sle i32 %6, %10
  %.not = xor i1 %19, %18
  br i1 %.not, label %24, label %20

20:                                               ; preds = %2
  %21 = icmp slt i8 %14, 2
  %22 = icmp slt i8 %17, 2
  %or.cond.i = and i1 %21, %22
  %23 = xor i8 %17, %14
  br i1 %or.cond.i, label %select.unfold, label %.thread30

24:                                               ; preds = %2
  %25 = icmp eq i8 %14, 0
  %26 = icmp eq i8 %17, 0
  %or.cond.i25 = or i1 %25, %26
  %27 = icmp eq i8 %14, 1
  %28 = icmp eq i8 %17, 1
  %or.cond5.i = and i1 %27, %28
  %..i = select i1 %or.cond5.i, i8 1, i8 2
  br i1 %or.cond.i25, label %.thread, label %select.unfold

select.unfold:                                    ; preds = %20, %24
  %.0 = phi i8 [ %..i, %24 ], [ %23, %20 ]
  %29 = icmp slt i8 %.0, 2
  br i1 %29, label %.thread, label %.thread30

.thread:                                          ; preds = %24, %select.unfold
  %.029 = phi i8 [ %.0, %select.unfold ], [ 0, %24 ]
  %30 = trunc i32 %1 to i8
  %31 = and i8 %30, 1
  %32 = xor i8 %.029, %31
  %33 = getelementptr inbounds i8, ptr %.val22, i64 %4
  store i8 %32, ptr %33, align 1, !tbaa !50
  %.not.i = icmp eq i8 %.029, %31
  %34 = zext i1 %.not.i to i8
  %.val7.i = load ptr, ptr %11, align 8, !tbaa !49
  %35 = getelementptr inbounds i8, ptr %.val7.i, i64 %8
  store i8 %34, ptr %35, align 1, !tbaa !50
  %36 = getelementptr inbounds nuw i8, ptr %0, i64 64
  %37 = getelementptr inbounds nuw i8, ptr %0, i64 68
  %38 = load i32, ptr %37, align 4, !tbaa !30
  %39 = load i32, ptr %36, align 8, !tbaa !33
  %40 = icmp eq i32 %38, %39
  br i1 %40, label %41, label %.Vec_IntGrow.exit10_crit_edge.i.i

.Vec_IntGrow.exit10_crit_edge.i.i:                ; preds = %.thread
  %.phi.trans.insert.i.i = getelementptr inbounds nuw i8, ptr %0, i64 72
  %.pre.i.i = load ptr, ptr %.phi.trans.insert.i.i, align 8, !tbaa !32
  br label %Min_LitSetValL.exit

41:                                               ; preds = %.thread
  %42 = icmp slt i32 %38, 16
  br i1 %42, label %43, label %51

43:                                               ; preds = %41
  %44 = getelementptr inbounds nuw i8, ptr %0, i64 72
  %45 = load ptr, ptr %44, align 8, !tbaa !32
  %.not9.i.i.i = icmp eq ptr %45, null
  br i1 %.not9.i.i.i, label %48, label %46

46:                                               ; preds = %43
  %47 = tail call dereferenceable_or_null(64) ptr @realloc(ptr noundef nonnull %45, i64 noundef 64) #28
  br label %Vec_IntGrow.exit.i.i

48:                                               ; preds = %43
  %49 = tail call noalias dereferenceable_or_null(64) ptr @malloc(i64 noundef 64) #26
  br label %Vec_IntGrow.exit.i.i

Vec_IntGrow.exit.i.i:                             ; preds = %48, %46
  %50 = phi ptr [ %47, %46 ], [ %49, %48 ]
  store ptr %50, ptr %44, align 8, !tbaa !32
  store i32 16, ptr %36, align 8, !tbaa !33
  br label %Min_LitSetValL.exit

51:                                               ; preds = %41
  %52 = shl nuw nsw i32 %38, 1
  %53 = getelementptr inbounds nuw i8, ptr %0, i64 72
  %54 = load ptr, ptr %53, align 8, !tbaa !32
  %.not9.i9.i.i = icmp eq ptr %54, null
  %55 = zext nneg i32 %52 to i64
  %56 = shl nuw nsw i64 %55, 2
  br i1 %.not9.i9.i.i, label %59, label %57

57:                                               ; preds = %51
  %58 = tail call ptr @realloc(ptr noundef nonnull %54, i64 noundef %56) #28
  br label %61

59:                                               ; preds = %51
  %60 = tail call noalias ptr @malloc(i64 noundef %56) #26
  br label %61

61:                                               ; preds = %59, %57
  %62 = phi ptr [ %58, %57 ], [ %60, %59 ]
  store ptr %62, ptr %53, align 8, !tbaa !32
  store i32 %52, ptr %36, align 8, !tbaa !33
  br label %Min_LitSetValL.exit

Min_LitSetValL.exit:                              ; preds = %.Vec_IntGrow.exit10_crit_edge.i.i, %Vec_IntGrow.exit.i.i, %61
  %63 = phi ptr [ %.pre.i.i, %.Vec_IntGrow.exit10_crit_edge.i.i ], [ %62, %61 ], [ %50, %Vec_IntGrow.exit.i.i ]
  %64 = ashr i32 %1, 1
  %65 = load i32, ptr %37, align 4, !tbaa !30
  %66 = add nsw i32 %65, 1
  store i32 %66, ptr %37, align 4, !tbaa !30
  %67 = sext i32 %65 to i64
  %68 = getelementptr inbounds i32, ptr %63, i64 %67
  store i32 %64, ptr %68, align 4, !tbaa !35
  br label %.thread30

.thread30:                                        ; preds = %20, %Min_LitSetValL.exit, %select.unfold
  %.1 = phi i8 [ %32, %Min_LitSetValL.exit ], [ %.0, %select.unfold ], [ 2, %20 ]
  ret i8 %.1
}